; Function Attrs: mustprogress nofree norecurse nosync nounwind willreturn memory(argmem: read) uwtable
define noundef i64 @_Z41alts_iovec_record_protocol_get_tag_lengthPK26alts_iovec_record_protocol(ptr noundef readonly %0) local_unnamed_addr #1 {
  %.not = icmp eq ptr %0, null
  br i1 %.not, label %5, label %2

2:                                                ; preds = %1
  %3 = getelementptr inbounds nuw i8, ptr %0, i64 16
  %4 = load i64, ptr %3, align 8, !tbaa !3
  br label %5

5:                                                ; preds = %1, %2
  %.0 = phi i64 [ %4, %2 ], [ 0, %1 ]
  ret i64 %.0
}